; Function Attrs: mustprogress nofree noinline norecurse nosync nounwind willreturn memory(readwrite, argmem: none, inaccessiblemem: none) uwtable
define internal fastcc noundef zeroext i1 @mi_recurse_enter_prim() unnamed_addr #10 {
  %1 = tail call align 1 ptr @llvm.threadlocal.address.p0(ptr align 1 @recurse)
  %2 = load i8, ptr %1, align 1, !tbaa !23, !range !25, !noundef !26
  %3 = trunc nuw i8 %2 to i1
  br i1 %3, label %5, label %4

4:                                                ; preds = %0
  store i8 1, ptr %1, align 1, !tbaa !23
  br label %5

5:                                                ; preds = %0, %4
  %.0 = xor i1 %3, true
  ret i1 %.0
}